target datalayout = "e-m:e-p270:32:32-p271:32:32-p272:64:64-i64:64-f80:128-n8:16:32:64-S128"
target triple = "x86_64-pc-linux-gnu"

%struct.patient = type { [10 x i8], i32 }

@.str = private unnamed_addr constant [4 x i8] c"%d\0A\00", align 1
@.str.1 = private unnamed_addr constant [5 x i8] c"%s%d\00", align 1
@pat = common dso_local global [100 x %struct.patient] zeroinitializer, align 16
@p = common dso_local global [100 x %struct.patient] zeroinitializer, align 16
@.str.2 = private unnamed_addr constant [4 x i8] c"%s\0A\00", align 1

; Function Attrs: noinline nounwind uwtable
define dso_local void @main() #0 {
  %1 = alloca i32, align 4
  %2 = alloca i32, align 4
  %3 = alloca i32, align 4
  %4 = alloca i32, align 4
  %5 = alloca i32, align 4
  %6 = alloca i32, align 4
  %7 = alloca [40 x i32], align 16
  %8 = alloca i32, align 4
  store i32 0, i32* %2, align 4
  store i32 0, i32* %4, align 4
  %9 = bitcast [40 x i32]* %7 to i8*
  call void @llvm.memset.p0i8.i64(i8* align 16 %9, i8 0, i64 160, i1 false)
  store i32 1, i32* %8, align 4
  %10 = call i32 (i8*, ...) @__isoc99_scanf(i8* getelementptr inbounds ([4 x i8], [4 x i8]* @.str, i64 0, i64 0), i32* %1)
  store i32 0, i32* %3, align 4
  br label %11

11:                                               ; preds = %26, %0
  %12 = load i32, i32* %3, align 4
  %13 = load i32, i32* %1, align 4
  %14 = icmp slt i32 %12, %13
  br i1 %14, label %15, label %29

15:                                               ; preds = %11
  %16 = load i32, i32* %3, align 4
  %17 = sext i32 %16 to i64
  %18 = getelementptr inbounds [100 x %struct.patient], [100 x %struct.patient]* @pat, i64 0, i64 %17
  %19 = getelementptr inbounds %struct.patient, %struct.patient* %18, i32 0, i32 0
  %20 = getelementptr inbounds [10 x i8], [10 x i8]* %19, i64 0, i64 0
  %21 = load i32, i32* %3, align 4
  %22 = sext i32 %21 to i64
  %23 = getelementptr inbounds [100 x %struct.patient], [100 x %struct.patient]* @pat, i64 0, i64 %22
  %24 = getelementptr inbounds %struct.patient, %struct.patient* %23, i32 0, i32 1
  %25 = call i32 (i8*, ...) @__isoc99_scanf(i8* getelementptr inbounds ([5 x i8], [5 x i8]* @.str.1, i64 0, i64 0), i8* %20, i32* %24)
  br label %26

26:                                               ; preds = %15
  %27 = load i32, i32* %3, align 4
  %28 = add nsw i32 %27, 1
  store i32 %28, i32* %3, align 4
  br label %11

29:                                               ; preds = %11
  store i32 0, i32* %3, align 4
  br label %30

30:                                               ; preds = %54, %29
  %31 = load i32, i32* %3, align 4
  %32 = load i32, i32* %1, align 4
  %33 = icmp slt i32 %31, %32
  br i1 %33, label %34, label %57

34:                                               ; preds = %30
  %35 = load i32, i32* %3, align 4
  %36 = sext i32 %35 to i64
  %37 = getelementptr inbounds [100 x %struct.patient], [100 x %struct.patient]* @pat, i64 0, i64 %36
  %38 = getelementptr inbounds %struct.patient, %struct.patient* %37, i32 0, i32 1
  %39 = load i32, i32* %38, align 4
  %40 = icmp sge i32 %39, 60
  br i1 %40, label %41, label %53

41:                                               ; preds = %34
  %42 = load i32, i32* %4, align 4
  %43 = add nsw i32 %42, 1
  store i32 %43, i32* %4, align 4
  %44 = sext i32 %42 to i64
  %45 = getelementptr inbounds [100 x %struct.patient], [100 x %struct.patient]* @p, i64 0, i64 %44
  %46 = load i32, i32* %3, align 4
  %47 = sext i32 %46 to i64
  %48 = getelementptr inbounds [100 x %struct.patient], [100 x %struct.patient]* @pat, i64 0, i64 %47
  %49 = bitcast %struct.patient* %45 to i8*
  %50 = bitcast %struct.patient* %48 to i8*
  call void @llvm.memcpy.p0i8.p0i8.i64(i8* align 16 %49, i8* align 16 %50, i64 16, i1 false)
  %51 = load i32, i32* %2, align 4
  %52 = add nsw i32 %51, 1
  store i32 %52, i32* %2, align 4
  br label %53

53:                                               ; preds = %41, %34
  br label %54

54:                                               ; preds = %53
  %55 = load i32, i32* %3, align 4
  %56 = add nsw i32 %55, 1
  store i32 %56, i32* %3, align 4
  br label %30

57:                                               ; preds = %30
  %58 = load i32, i32* getelementptr inbounds ([100 x %struct.patient], [100 x %struct.patient]* @p, i64 0, i64 0, i32 1), align 4
  %59 = getelementptr inbounds [40 x i32], [40 x i32]* %7, i64 0, i64 0
  store i32 %58, i32* %59, align 16
  store i32 1, i32* %4, align 4
  br label %60

60:                                               ; preds = %105, %57
  %61 = load i32, i32* %4, align 4
  %62 = load i32, i32* %2, align 4
  %63 = icmp slt i32 %61, %62
  br i1 %63, label %64, label %108

64:                                               ; preds = %60
  store i32 0, i32* %3, align 4
  br label %65

65:                                               ; preds = %84, %64
  %66 = load i32, i32* %3, align 4
  %67 = sext i32 %66 to i64
  %68 = getelementptr inbounds [40 x i32], [40 x i32]* %7, i64 0, i64 %67
  %69 = load i32, i32* %68, align 4
  %70 = icmp ne i32 %69, 0
  br i1 %70, label %71, label %87

71:                                               ; preds = %65
  %72 = load i32, i32* %3, align 4
  %73 = sext i32 %72 to i64
  %74 = getelementptr inbounds [40 x i32], [40 x i32]* %7, i64 0, i64 %73
  %75 = load i32, i32* %74, align 4
  %76 = load i32, i32* %4, align 4
  %77 = sext i32 %76 to i64
  %78 = getelementptr inbounds [100 x %struct.patient], [100 x %struct.patient]* @p, i64 0, i64 %77
  %79 = getelementptr inbounds %struct.patient, %struct.patient* %78, i32 0, i32 1
  %80 = load i32, i32* %79, align 4
  %81 = icmp eq i32 %75, %80
  br i1 %81, label %82, label %83

82:                                               ; preds = %71
  br label %87

83:                                               ; preds = %71
  br label %84

84:                                               ; preds = %83
  %85 = load i32, i32* %3, align 4
  %86 = add nsw i32 %85, 1
  store i32 %86, i32* %3, align 4
  br label %65

87:                                               ; preds = %82, %65
  %88 = load i32, i32* %3, align 4
  %89 = sext i32 %88 to i64
  %90 = getelementptr inbounds [40 x i32], [40 x i32]* %7, i64 0, i64 %89
  %91 = load i32, i32* %90, align 4
  %92 = icmp eq i32 %91, 0
  br i1 %92, label %93, label %104

93:                                               ; preds = %87
  %94 = load i32, i32* %4, align 4
  %95 = sext i32 %94 to i64
  %96 = getelementptr inbounds [100 x %struct.patient], [100 x %struct.patient]* @p, i64 0, i64 %95
  %97 = getelementptr inbounds %struct.patient, %struct.patient* %96, i32 0, i32 1
  %98 = load i32, i32* %97, align 4
  %99 = load i32, i32* %3, align 4
  %100 = sext i32 %99 to i64
  %101 = getelementptr inbounds [40 x i32], [40 x i32]* %7, i64 0, i64 %100
  store i32 %98, i32* %101, align 4
  %102 = load i32, i32* %8, align 4
  %103 = add nsw i32 %102, 1
  store i32 %103, i32* %8, align 4
  br label %104

104:                                              ; preds = %93, %87
  br label %105

105:                                              ; preds = %104
  %106 = load i32, i32* %4, align 4
  %107 = add nsw i32 %106, 1
  store i32 %107, i32* %4, align 4
  br label %60

108:                                              ; preds = %60
  store i32 0, i32* %4, align 4
  br label %109

109:                                              ; preds = %154, %108
  %110 = load i32, i32* %4, align 4
  %111 = load i32, i32* %8, align 4
  %112 = sub nsw i32 %111, 1
  %113 = icmp slt i32 %110, %112
  br i1 %113, label %114, label %157

114:                                              ; preds = %109
  %115 = load i32, i32* %4, align 4
  store i32 %115, i32* %5, align 4
  %116 = load i32, i32* %4, align 4
  %117 = add nsw i32 %116, 1
  store i32 %117, i32* %3, align 4
  br label %118

118:                                              ; preds = %150, %114
  %119 = load i32, i32* %3, align 4
  %120 = load i32, i32* %8, align 4
  %121 = icmp slt i32 %119, %120
  br i1 %121, label %122, label %153

122:                                              ; preds = %118
  %123 = load i32, i32* %3, align 4
  %124 = sext i32 %123 to i64
  %125 = getelementptr inbounds [40 x i32], [40 x i32]* %7, i64 0, i64 %124
  %126 = load i32, i32* %125, align 4
  %127 = load i32, i32* %4, align 4
  %128 = sext i32 %127 to i64
  %129 = getelementptr inbounds [40 x i32], [40 x i32]* %7, i64 0, i64 %128
  %130 = load i32, i32* %129, align 4
  %131 = icmp sgt i32 %126, %130
  br i1 %131, label %132, label %149

132:                                              ; preds = %122
  %133 = load i32, i32* %3, align 4
  store i32 %133, i32* %5, align 4
  %134 = load i32, i32* %5, align 4
  %135 = sext i32 %134 to i64
  %136 = getelementptr inbounds [40 x i32], [40 x i32]* %7, i64 0, i64 %135
  %137 = load i32, i32* %136, align 4
  store i32 %137, i32* %6, align 4
  %138 = load i32, i32* %4, align 4
  %139 = sext i32 %138 to i64
  %140 = getelementptr inbounds [40 x i32], [40 x i32]* %7, i64 0, i64 %139
  %141 = load i32, i32* %140, align 4
  %142 = load i32, i32* %5, align 4
  %143 = sext i32 %142 to i64
  %144 = getelementptr inbounds [40 x i32], [40 x i32]* %7, i64 0, i64 %143
  store i32 %141, i32* %144, align 4
  %145 = load i32, i32* %6, align 4
  %146 = load i32, i32* %4, align 4
  %147 = sext i32 %146 to i64
  %148 = getelementptr inbounds [40 x i32], [40 x i32]* %7, i64 0, i64 %147
  store i32 %145, i32* %148, align 4
  br label %149

149:                                              ; preds = %132, %122
  br label %150

150:                                              ; preds = %149
  %151 = load i32, i32* %3, align 4
  %152 = add nsw i32 %151, 1
  store i32 %152, i32* %3, align 4
  br label %118

153:                                              ; preds = %118
  br label %154

154:                                              ; preds = %153
  %155 = load i32, i32* %4, align 4
  %156 = add nsw i32 %155, 1
  store i32 %156, i32* %4, align 4
  br label %109

157:                                              ; preds = %109
  store i32 0, i32* %5, align 4
  br label %158

158:                                              ; preds = %190, %157
  %159 = load i32, i32* %5, align 4
  %160 = load i32, i32* %8, align 4
  %161 = icmp slt i32 %159, %160
  br i1 %161, label %162, label %193

162:                                              ; preds = %158
  store i32 0, i32* %4, align 4
  br label %163

163:                                              ; preds = %186, %162
  %164 = load i32, i32* %4, align 4
  %165 = load i32, i32* %2, align 4
  %166 = icmp slt i32 %164, %165
  br i1 %166, label %167, label %189

167:                                              ; preds = %163
  %168 = load i32, i32* %4, align 4
  %169 = sext i32 %168 to i64
  %170 = getelementptr inbounds [100 x %struct.patient], [100 x %struct.patient]* @p, i64 0, i64 %169
  %171 = getelementptr inbounds %struct.patient, %struct.patient* %170, i32 0, i32 1
  %172 = load i32, i32* %171, align 4
  %173 = load i32, i32* %5, align 4
  %174 = sext i32 %173 to i64
  %175 = getelementptr inbounds [40 x i32], [40 x i32]* %7, i64 0, i64 %174
  %176 = load i32, i32* %175, align 4
  %177 = icmp eq i32 %172, %176
  br i1 %177, label %178, label %185

178:                                              ; preds = %167
  %179 = load i32, i32* %4, align 4
  %180 = sext i32 %179 to i64
  %181 = getelementptr inbounds [100 x %struct.patient], [100 x %struct.patient]* @p, i64 0, i64 %180
  %182 = getelementptr inbounds %struct.patient, %struct.patient* %181, i32 0, i32 0
  %183 = getelementptr inbounds [10 x i8], [10 x i8]* %182, i64 0, i64 0
  %184 = call i32 (i8*, ...) @printf(i8* getelementptr inbounds ([4 x i8], [4 x i8]* @.str.2, i64 0, i64 0), i8* %183)
  br label %185

185:                                              ; preds = %178, %167
  br label %186

186:                                              ; preds = %185
  %187 = load i32, i32* %4, align 4
  %188 = add nsw i32 %187, 1
  store i32 %188, i32* %4, align 4
  br label %163

189:                                              ; preds = %163
  br label %190

190:                                              ; preds = %189
  %191 = load i32, i32* %5, align 4
  %192 = add nsw i32 %191, 1
  store i32 %192, i32* %5, align 4
  br label %158

193:                                              ; preds = %158
  store i32 0, i32* %3, align 4
  br label %194

194:                                              ; preds = %213, %193
  %195 = load i32, i32* %3, align 4
  %196 = load i32, i32* %1, align 4
  %197 = icmp slt i32 %195, %196
  br i1 %197, label %198, label %216

198:                                              ; preds = %194
  %199 = load i32, i32* %3, align 4
  %200 = sext i32 %199 to i64
  %201 = getelementptr inbounds [100 x %struct.patient], [100 x %struct.patient]* @pat, i64 0, i64 %200
  %202 = getelementptr inbounds %struct.patient, %struct.patient* %201, i32 0, i32 1
  %203 = load i32, i32* %202, align 4
  %204 = icmp slt i32 %203, 60
  br i1 %204, label %205, label %212

205:                                              ; preds = %198
  %206 = load i32, i32* %3, align 4
  %207 = sext i32 %206 to i64
  %208 = getelementptr inbounds [100 x %struct.patient], [100 x %struct.patient]* @pat, i64 0, i64 %207
  %209 = getelementptr inbounds %struct.patient, %struct.patient* %208, i32 0, i32 0
  %210 = getelementptr inbounds [10 x i8], [10 x i8]* %209, i64 0, i64 0
  %211 = call i32 (i8*, ...) @printf(i8* getelementptr inbounds ([4 x i8], [4 x i8]* @.str.2, i64 0, i64 0), i8* %210)
  br label %212

212:                                              ; preds = %205, %198
  br label %213

213:                                              ; preds = %212
  %214 = load i32, i32* %3, align 4
  %215 = add nsw i32 %214, 1
  store i32 %215, i32* %3, align 4
  br label %194

216:                                              ; preds = %194
  ret void
}